target datalayout = "e-m:e-p270:32:32-p271:32:32-p272:64:64-i64:64-i128:128-f80:128-n8:16:32:64-S128"
target triple = "x86_64-pc-linux-gnu"

@.str.8095 = private unnamed_addr constant [20 x i8] c"NRSRP < -156dBm (0)\00", align 1
@.str.8096 = private unnamed_addr constant [28 x i8] c"%ddBm <= NRSRP < %ddBm (%u)\00", align 1
@.str.8097 = private unnamed_addr constant [21 x i8] c"-44dBm <= NRSRP (97)\00", align 1

; Function Attrs: null_pointer_is_valid sspstrong uwtable
define internal void @lpp_nrsrp_Result_fmt(ptr noundef %0, i32 noundef %1) #0 {
  %3 = alloca ptr, align 8
  %4 = alloca i32, align 4
  store ptr %0, ptr %3, align 8
  store i32 %1, ptr %4, align 4
  %5 = load i32, ptr %4, align 4
  %6 = icmp eq i32 %5, 0
  br i1 %6, label %7, label %12

7:                                                ; preds = %2
  %8 = load ptr, ptr %3, align 8
  %9 = load ptr, ptr %3, align 8
  %10 = call i64 @llvm.objectsize.i64.p0(ptr %9, i1 false, i1 true, i1 true)
  %11 = call i32 (ptr, i64, i32, i64, ptr, ...) @__snprintf_chk(ptr noundef %8, i64 noundef 240, i32 noundef 2, i64 noundef %10, ptr noundef @.str.8095)
  br label %31

12:                                               ; preds = %2
  %13 = load i32, ptr %4, align 4
  %14 = icmp ult i32 %13, 113
  br i1 %14, label %15, label %25

15:                                               ; preds = %12
  %16 = load ptr, ptr %3, align 8
  %17 = load ptr, ptr %3, align 8
  %18 = call i64 @llvm.objectsize.i64.p0(ptr %17, i1 false, i1 true, i1 true)
  %19 = load i32, ptr %4, align 4
  %20 = sub i32 %19, 157
  %21 = load i32, ptr %4, align 4
  %22 = sub i32 %21, 156
  %23 = load i32, ptr %4, align 4
  %24 = call i32 (ptr, i64, i32, i64, ptr, ...) @__snprintf_chk(ptr noundef %16, i64 noundef 240, i32 noundef 2, i64 noundef %18, ptr noundef @.str.8096, i32 noundef %20, i32 noundef %22, i32 noundef %23)
  br label %30

25:                                               ; preds = %12
  %26 = load ptr, ptr %3, align 8
  %27 = load ptr, ptr %3, align 8
  %28 = call i64 @llvm.objectsize.i64.p0(ptr %27, i1 false, i1 true, i1 true)
  %29 = call i32 (ptr, i64, i32, i64, ptr, ...) @__snprintf_chk(ptr noundef %26, i64 noundef 240, i32 noundef 2, i64 noundef %28, ptr noundef @.str.8097)
  br label %30

30:                                               ; preds = %25, %15
  br label %31

31:                                               ; preds = %30, %7
  ret void
}