; Function Attrs: nofree null_pointer_is_valid sspstrong uwtable
define internal void @lpp_nrsrp_Result_fmt(ptr noundef %0, i32 noundef %1) #3 {
  %3 = icmp eq i32 %1, 0
  br i1 %3, label %4, label %6

4:                                                ; preds = %2
  %5 = tail call i32 (ptr, i64, i32, i64, ptr, ...) @__snprintf_chk(ptr noundef %0, i64 noundef 240, i32 noundef 2, i64 noundef -1, ptr noundef nonnull @.str.8095)
  br label %14

6:                                                ; preds = %2
  %7 = icmp ult i32 %1, 113
  br i1 %7, label %8, label %12

8:                                                ; preds = %6
  %9 = add nuw nsw i32 %1, -157
  %10 = add nuw nsw i32 %1, -156
  %11 = tail call i32 (ptr, i64, i32, i64, ptr, ...) @__snprintf_chk(ptr noundef %0, i64 noundef 240, i32 noundef 2, i64 noundef -1, ptr noundef nonnull @.str.8096, i32 noundef %9, i32 noundef %10, i32 noundef %1)
  br label %14

12:                                               ; preds = %6
  %13 = tail call i32 (ptr, i64, i32, i64, ptr, ...) @__snprintf_chk(ptr noundef %0, i64 noundef 240, i32 noundef 2, i64 noundef -1, ptr noundef nonnull @.str.8097)
  br label %14

14:                                               ; preds = %8, %12, %4
  ret void
}